CCS PCM C Compiler, Version 5.101, 43599               25-Apr-23 00:40

               Filename:   D:\processor\bai11\ngat.lst

               ROM used:   957 words (12%)
                           Largest free fragment is 2048
               RAM used:   24 (7%) at main() level
                           46 (12%) worst case
               Stack used: 4 locations (3 in main + 1 for interrupts)
               Stack size: 8

*
0000:  MOVLW  03
0001:  MOVWF  0A
0002:  GOTO   353
0003:  NOP
0004:  MOVWF  7F
0005:  SWAPF  03,W
0006:  CLRF   03
0007:  MOVWF  21
0008:  MOVF   0A,W
0009:  MOVWF  20
000A:  CLRF   0A
000B:  MOVF   04,W
000C:  MOVWF  22
000D:  MOVF   77,W
000E:  MOVWF  23
000F:  MOVF   78,W
0010:  MOVWF  24
0011:  MOVF   79,W
0012:  MOVWF  25
0013:  MOVF   7A,W
0014:  MOVWF  26
0015:  BSF    03.6
0016:  MOVF   0D,W
0017:  BCF    03.6
0018:  MOVWF  27
0019:  BSF    03.6
001A:  MOVF   0F,W
001B:  BCF    03.6
001C:  MOVWF  28
001D:  BSF    03.6
001E:  MOVF   0C,W
001F:  BCF    03.6
0020:  MOVWF  29
0021:  BSF    03.6
0022:  MOVF   0E,W
0023:  BCF    03.6
0024:  MOVWF  2A
0025:  BCF    03.7
0026:  BCF    03.5
0027:  MOVLW  8C
0028:  MOVWF  04
0029:  BTFSS  00.6
002A:  GOTO   02D
002B:  BTFSC  0C.6
002C:  GOTO   05E
002D:  MOVLW  8C
002E:  MOVWF  04
002F:  BTFSS  00.0
0030:  GOTO   033
0031:  BTFSC  0C.0
0032:  GOTO   061
0033:  MOVLW  8C
0034:  MOVWF  04
0035:  BTFSS  00.1
0036:  GOTO   039
0037:  BTFSC  0C.1
0038:  GOTO   064
0039:  BTFSS  0B.5
003A:  GOTO   03D
003B:  BTFSC  0B.2
003C:  GOTO   067
003D:  MOVF   22,W
003E:  MOVWF  04
003F:  MOVF   23,W
0040:  MOVWF  77
0041:  MOVF   24,W
0042:  MOVWF  78
0043:  MOVF   25,W
0044:  MOVWF  79
0045:  MOVF   26,W
0046:  MOVWF  7A
0047:  MOVF   27,W
0048:  BSF    03.6
0049:  MOVWF  0D
004A:  BCF    03.6
004B:  MOVF   28,W
004C:  BSF    03.6
004D:  MOVWF  0F
004E:  BCF    03.6
004F:  MOVF   29,W
0050:  BSF    03.6
0051:  MOVWF  0C
0052:  BCF    03.6
0053:  MOVF   2A,W
0054:  BSF    03.6
0055:  MOVWF  0E
0056:  BCF    03.6
0057:  MOVF   20,W
0058:  MOVWF  0A
0059:  SWAPF  21,W
005A:  MOVWF  03
005B:  SWAPF  7F,F
005C:  SWAPF  7F,W
005D:  RETFIE
005E:  BCF    0A.3
005F:  BCF    0A.4
0060:  GOTO   06A
0061:  BCF    0A.3
0062:  BCF    0A.4
0063:  GOTO   1A2
0064:  BCF    0A.3
0065:  BCF    0A.4
0066:  GOTO   1AD
0067:  BCF    0A.3
0068:  BCF    0A.4
0069:  GOTO   19B
.................... #include<16f887.h>
.................... //////////// Standard Header file for the PIC16F887 device ////////////////
.................... ///////////////////////////////////////////////////////////////////////////
.................... ////        (C) Copyright 1996, 2020 Custom Computer Services          ////
.................... //// This source code may only be used by licensed users of the CCS C  ////
.................... //// compiler.  This source code may only be distributed to other      ////
.................... //// licensed users of the CCS C compiler.  No other use, reproduction ////
.................... //// or distribution is permitted without written permission.          ////
.................... //// Derivative programs created using this software in object code    ////
.................... //// form are not restricted in any way.                               ////
.................... ///////////////////////////////////////////////////////////////////////////
.................... #device PIC16F887
*
007A:  MOVLW  8E
007B:  MOVWF  77
007C:  MOVF   3C,W
007D:  MOVWF  78
007E:  MOVF   3B,W
007F:  MOVWF  79
0080:  CLRF   7A
0081:  MOVF   78,F
0082:  BTFSS  03.2
0083:  GOTO   08E
0084:  MOVF   79,W
0085:  MOVWF  78
0086:  CLRF   79
0087:  MOVLW  08
0088:  SUBWF  77,F
0089:  MOVF   78,F
008A:  BTFSS  03.2
008B:  GOTO   08E
008C:  CLRF   77
008D:  GOTO   096
008E:  BCF    03.0
008F:  BTFSC  78.7
0090:  GOTO   095
0091:  RLF    79,F
0092:  RLF    78,F
0093:  DECF   77,F
0094:  GOTO   08E
0095:  BCF    78.7
*
00A6:  MOVF   3B,W
00A7:  BTFSC  03.2
00A8:  GOTO   16B
00A9:  MOVWF  47
00AA:  MOVF   3F,W
00AB:  BTFSC  03.2
00AC:  GOTO   16B
00AD:  SUBWF  47,F
00AE:  BTFSS  03.0
00AF:  GOTO   0B5
00B0:  MOVLW  7F
00B1:  ADDWF  47,F
00B2:  BTFSC  03.0
00B3:  GOTO   16B
00B4:  GOTO   0BB
00B5:  MOVLW  81
00B6:  SUBWF  47,F
00B7:  BTFSS  03.0
00B8:  GOTO   16B
00B9:  BTFSC  03.2
00BA:  GOTO   16B
00BB:  MOVF   47,W
00BC:  MOVWF  77
00BD:  CLRF   78
00BE:  CLRF   79
00BF:  CLRF   7A
00C0:  CLRF   46
00C1:  MOVF   3C,W
00C2:  MOVWF  45
00C3:  BSF    45.7
00C4:  MOVF   3D,W
00C5:  MOVWF  44
00C6:  MOVF   3E,W
00C7:  MOVWF  43
00C8:  MOVLW  19
00C9:  MOVWF  47
00CA:  MOVF   42,W
00CB:  SUBWF  43,F
00CC:  BTFSC  03.0
00CD:  GOTO   0DE
00CE:  MOVLW  01
00CF:  SUBWF  44,F
00D0:  BTFSC  03.0
00D1:  GOTO   0DE
00D2:  SUBWF  45,F
00D3:  BTFSC  03.0
00D4:  GOTO   0DE
00D5:  SUBWF  46,F
00D6:  BTFSC  03.0
00D7:  GOTO   0DE
00D8:  INCF   46,F
00D9:  INCF   45,F
00DA:  INCF   44,F
00DB:  MOVF   42,W
00DC:  ADDWF  43,F
00DD:  GOTO   110
00DE:  MOVF   41,W
00DF:  SUBWF  44,F
00E0:  BTFSC  03.0
00E1:  GOTO   0F9
00E2:  MOVLW  01
00E3:  SUBWF  45,F
00E4:  BTFSC  03.0
00E5:  GOTO   0F9
00E6:  SUBWF  46,F
00E7:  BTFSC  03.0
00E8:  GOTO   0F9
00E9:  INCF   46,F
00EA:  INCF   45,F
00EB:  MOVF   41,W
00EC:  ADDWF  44,F
00ED:  MOVF   42,W
00EE:  ADDWF  43,F
00EF:  BTFSS  03.0
00F0:  GOTO   110
00F1:  INCF   44,F
00F2:  BTFSS  03.2
00F3:  GOTO   110
00F4:  INCF   45,F
00F5:  BTFSS  03.2
00F6:  GOTO   110
00F7:  INCF   46,F
00F8:  GOTO   110
00F9:  MOVF   40,W
00FA:  IORLW  80
00FB:  SUBWF  45,F
00FC:  BTFSC  03.0
00FD:  GOTO   10F
00FE:  MOVLW  01
00FF:  SUBWF  46,F
0100:  BTFSC  03.0
0101:  GOTO   10F
0102:  INCF   46,F
0103:  MOVF   40,W
0104:  IORLW  80
0105:  ADDWF  45,F
0106:  MOVF   41,W
0107:  ADDWF  44,F
0108:  BTFSS  03.0
0109:  GOTO   0ED
010A:  INCF   45,F
010B:  BTFSS  03.2
010C:  GOTO   0ED
010D:  INCF   46,F
010E:  GOTO   0ED
010F:  BSF    7A.0
0110:  DECFSZ 47,F
0111:  GOTO   113
0112:  GOTO   11E
0113:  BCF    03.0
0114:  RLF    43,F
0115:  RLF    44,F
0116:  RLF    45,F
0117:  RLF    46,F
0118:  BCF    03.0
0119:  RLF    7A,F
011A:  RLF    79,F
011B:  RLF    78,F
011C:  RLF    48,F
011D:  GOTO   0CA
011E:  BTFSS  48.0
011F:  GOTO   126
0120:  BCF    03.0
0121:  RRF    78,F
0122:  RRF    79,F
0123:  RRF    7A,F
0124:  RRF    48,F
0125:  GOTO   129
0126:  DECF   77,F
0127:  BTFSC  03.2
0128:  GOTO   16B
0129:  BTFSC  48.7
012A:  GOTO   152
012B:  BCF    03.0
012C:  RLF    43,F
012D:  RLF    44,F
012E:  RLF    45,F
012F:  RLF    46,F
0130:  MOVF   42,W
0131:  SUBWF  43,F
0132:  BTFSC  03.0
0133:  GOTO   13E
0134:  MOVLW  01
0135:  SUBWF  44,F
0136:  BTFSC  03.0
0137:  GOTO   13E
0138:  SUBWF  45,F
0139:  BTFSC  03.0
013A:  GOTO   13E
013B:  SUBWF  46,F
013C:  BTFSS  03.0
013D:  GOTO   161
013E:  MOVF   41,W
013F:  SUBWF  44,F
0140:  BTFSC  03.0
0141:  GOTO   149
0142:  MOVLW  01
0143:  SUBWF  45,F
0144:  BTFSC  03.0
0145:  GOTO   149
0146:  SUBWF  46,F
0147:  BTFSS  03.0
0148:  GOTO   161
0149:  MOVF   40,W
014A:  IORLW  80
014B:  SUBWF  45,F
014C:  BTFSC  03.0
014D:  GOTO   152
014E:  MOVLW  01
014F:  SUBWF  46,F
0150:  BTFSS  03.0
0151:  GOTO   161
0152:  INCF   7A,F
0153:  BTFSS  03.2
0154:  GOTO   161
0155:  INCF   79,F
0156:  BTFSS  03.2
0157:  GOTO   161
0158:  INCF   78,F
0159:  BTFSS  03.2
015A:  GOTO   161
015B:  INCF   77,F
015C:  BTFSC  03.2
015D:  GOTO   16B
015E:  RRF    78,F
015F:  RRF    79,F
0160:  RRF    7A,F
0161:  MOVF   3C,W
0162:  MOVWF  47
0163:  MOVF   40,W
0164:  XORWF  47,F
0165:  BTFSS  47.7
0166:  GOTO   169
0167:  BSF    78.7
0168:  GOTO   16F
0169:  BCF    78.7
016A:  GOTO   16F
016B:  CLRF   77
016C:  CLRF   78
016D:  CLRF   79
016E:  CLRF   7A
*
0177:  MOVLW  8E
0178:  MOVWF  77
0179:  MOVF   39,W
017A:  SUBWF  77,F
017B:  MOVF   3A,W
017C:  MOVWF  79
017D:  MOVF   3B,W
017E:  MOVWF  78
017F:  BSF    79.7
0180:  MOVF   77,F
0181:  BTFSC  03.2
0182:  GOTO   18E
0183:  BCF    03.0
0184:  MOVF   79,F
0185:  BTFSS  03.2
0186:  GOTO   18A
0187:  MOVF   78,F
0188:  BTFSC  03.2
0189:  GOTO   18E
018A:  RRF    79,F
018B:  RRF    78,F
018C:  DECFSZ 77,F
018D:  GOTO   183
018E:  BTFSS  3A.7
018F:  GOTO   195
0190:  COMF   78,F
0191:  COMF   79,F
0192:  INCF   78,F
0193:  BTFSC  03.2
0194:  INCF   79,F
*
01B2:  DATA D4,34
01B3:  DATA ED,32
01B4:  DATA 72,18
01B5:  DATA 3A,10
01B6:  DATA A5,3A
01B7:  DATA 20,00
01B8:  DATA D4,34
01B9:  DATA ED,32
01BA:  DATA F2,18
01BB:  DATA 3A,10
01BC:  DATA A5,3A
01BD:  DATA 20,00
01BE:  DATA D4,34
01BF:  DATA ED,32
01C0:  DATA 72,19
01C1:  DATA 3A,10
01C2:  DATA A5,3A
01C3:  DATA 20,00
01C4:  DATA 4E,24
01C5:  DATA C9,22
01C6:  DATA 54,10
01C7:  DATA C4,27
01C8:  DATA 3A,10
01C9:  DATA A5,3A
01CA:  DATA 20,10
01CB:  DATA 00,00
*
0258:  MOVF   0B,W
0259:  MOVWF  34
025A:  BCF    0B.7
025B:  BSF    03.5
025C:  BSF    03.6
025D:  BSF    0C.7
025E:  BSF    0C.0
025F:  NOP
0260:  NOP
0261:  BCF    03.5
0262:  BCF    03.6
0263:  BTFSC  34.7
0264:  BSF    0B.7
0265:  BTFSC  03.0
0266:  GOTO   28F
0267:  BSF    03.6
0268:  MOVF   0C,W
0269:  ANDLW  7F
026A:  BCF    03.6
026B:  MOVWF  34
026C:  BSF    03.6
026D:  MOVF   0D,W
026E:  BCF    03.6
026F:  MOVWF  35
0270:  BSF    03.6
0271:  MOVF   0F,W
0272:  BCF    03.6
0273:  MOVWF  36
0274:  MOVF   34,W
0275:  MOVWF  37
0276:  CALL   237
0277:  MOVF   35,W
0278:  BSF    03.6
0279:  MOVWF  0D
027A:  BCF    03.6
027B:  MOVF   36,W
027C:  BSF    03.6
027D:  MOVWF  0F
027E:  BCF    03.6
027F:  MOVF   0B,W
0280:  MOVWF  37
0281:  BCF    0B.7
0282:  BSF    03.5
0283:  BSF    03.6
0284:  BSF    0C.7
0285:  BSF    0C.0
0286:  NOP
0287:  NOP
0288:  BCF    03.5
0289:  BCF    03.6
028A:  BTFSC  37.7
028B:  BSF    0B.7
028C:  DECFSZ 33,F
028D:  GOTO   28F
028E:  GOTO   2AE
028F:  BSF    03.6
0290:  RLF    0C,W
0291:  RLF    0E,W
0292:  ANDLW  7F
0293:  BCF    03.6
0294:  MOVWF  34
0295:  BSF    03.6
0296:  MOVF   0D,W
0297:  BCF    03.6
0298:  MOVWF  35
0299:  BSF    03.6
029A:  MOVF   0F,W
029B:  BCF    03.6
029C:  MOVWF  36
029D:  MOVF   34,W
029E:  MOVWF  37
029F:  CALL   237
02A0:  MOVF   35,W
02A1:  BSF    03.6
02A2:  MOVWF  0D
02A3:  BCF    03.6
02A4:  MOVF   36,W
02A5:  BSF    03.6
02A6:  MOVWF  0F
02A7:  INCF   0D,F
02A8:  BTFSC  03.2
02A9:  INCF   0F,F
02AA:  BCF    03.0
02AB:  BCF    03.6
02AC:  DECFSZ 33,F
02AD:  GOTO   258
02AE:  RETURN
02AF:  MOVF   36,W
02B0:  CLRF   78
02B1:  SUBWF  35,W
02B2:  BTFSC  03.0
02B3:  GOTO   2B7
02B4:  MOVF   35,W
02B5:  MOVWF  77
02B6:  GOTO   2C3
02B7:  CLRF   77
02B8:  MOVLW  08
02B9:  MOVWF  37
02BA:  RLF    35,F
02BB:  RLF    77,F
02BC:  MOVF   36,W
02BD:  SUBWF  77,W
02BE:  BTFSC  03.0
02BF:  MOVWF  77
02C0:  RLF    78,F
02C1:  DECFSZ 37,F
02C2:  GOTO   2BA
02C3:  RETURN
02C4:  MOVF   78,W
02C5:  MOVF   33,W
02C6:  MOVWF  35
02C7:  MOVLW  64
02C8:  MOVWF  36
02C9:  CALL   2AF
02CA:  MOVF   77,W
02CB:  MOVWF  33
02CC:  MOVF   78,W
02CD:  MOVLW  30
02CE:  BTFSS  03.2
02CF:  GOTO   2D7
02D0:  BTFSS  34.1
02D1:  GOTO   2DE
02D2:  BTFSC  34.3
02D3:  GOTO   2DE
02D4:  BTFSC  34.4
02D5:  MOVLW  20
02D6:  GOTO   2DA
02D7:  BCF    34.3
02D8:  BCF    34.4
02D9:  BSF    34.0
02DA:  ADDWF  78,F
02DB:  MOVF   78,W
02DC:  MOVWF  37
02DD:  CALL   237
02DE:  MOVF   33,W
02DF:  MOVWF  35
02E0:  MOVLW  0A
02E1:  MOVWF  36
02E2:  CALL   2AF
02E3:  MOVF   77,W
02E4:  MOVWF  33
02E5:  MOVF   78,W
02E6:  MOVLW  30
02E7:  BTFSS  03.2
02E8:  GOTO   2EF
02E9:  BTFSC  34.3
02EA:  GOTO   2F3
02EB:  BTFSS  34.0
02EC:  GOTO   2F3
02ED:  BTFSC  34.4
02EE:  MOVLW  20
02EF:  ADDWF  78,F
02F0:  MOVF   78,W
02F1:  MOVWF  37
02F2:  CALL   237
02F3:  MOVLW  30
02F4:  ADDWF  33,F
02F5:  MOVF   33,W
02F6:  MOVWF  37
02F7:  CALL   237
02F8:  RETURN
.................... 
.................... #list
.................... 
.................... #device adc=10
.................... #fuses hs
.................... #use delay(clock=20M)
*
01CC:  MOVLW  38
01CD:  MOVWF  04
01CE:  BCF    03.7
01CF:  MOVF   00,W
01D0:  BTFSC  03.2
01D1:  GOTO   1DF
01D2:  MOVLW  06
01D3:  MOVWF  78
01D4:  CLRF   77
01D5:  DECFSZ 77,F
01D6:  GOTO   1D5
01D7:  DECFSZ 78,F
01D8:  GOTO   1D4
01D9:  MOVLW  7B
01DA:  MOVWF  77
01DB:  DECFSZ 77,F
01DC:  GOTO   1DB
01DD:  DECFSZ 00,F
01DE:  GOTO   1D2
01DF:  RETURN
.................... #define       lcd_e        pin_c7
.................... #define       lcd_rw       pin_c6
.................... #define       lcd_rs       pin_c5
.................... #define       output_lcd   output_d
.................... #include<TV_LCD.c>
.................... void lcd_command(int8 a)
.................... {
....................       output_low(lcd_rw);
01E0:  BCF    2B.6
01E1:  MOVF   2B,W
01E2:  BSF    03.5
01E3:  MOVWF  07
01E4:  BCF    03.5
01E5:  BCF    07.6
....................       output_low(lcd_rs);
01E6:  BCF    2B.5
01E7:  MOVF   2B,W
01E8:  BSF    03.5
01E9:  MOVWF  07
01EA:  BCF    03.5
01EB:  BCF    07.5
....................       output_lcd(a);
01EC:  BSF    03.5
01ED:  CLRF   08
01EE:  BCF    03.5
01EF:  MOVF   33,W
01F0:  MOVWF  08
....................       output_high(lcd_e);
01F1:  BCF    2B.7
01F2:  MOVF   2B,W
01F3:  BSF    03.5
01F4:  MOVWF  07
01F5:  BCF    03.5
01F6:  BSF    07.7
....................       output_low(lcd_e);
01F7:  BCF    2B.7
01F8:  MOVF   2B,W
01F9:  BSF    03.5
01FA:  MOVWF  07
01FB:  BCF    03.5
01FC:  BCF    07.7
....................       delay_ms(1);    
01FD:  MOVLW  01
01FE:  MOVWF  38
01FF:  CALL   1CC
0200:  RETURN
.................... }
.................... void lcd_data(int8 a)
.................... {
....................       output_low(lcd_rw);
*
0237:  BCF    2B.6
0238:  MOVF   2B,W
0239:  BSF    03.5
023A:  MOVWF  07
023B:  BCF    03.5
023C:  BCF    07.6
....................       output_high(lcd_rs);
023D:  BCF    2B.5
023E:  MOVF   2B,W
023F:  BSF    03.5
0240:  MOVWF  07
0241:  BCF    03.5
0242:  BSF    07.5
....................       output_lcd(a);
0243:  BSF    03.5
0244:  CLRF   08
0245:  BCF    03.5
0246:  MOVF   37,W
0247:  MOVWF  08
....................       output_high(lcd_e);
0248:  BCF    2B.7
0249:  MOVF   2B,W
024A:  BSF    03.5
024B:  MOVWF  07
024C:  BCF    03.5
024D:  BSF    07.7
....................       output_low(lcd_e);
024E:  BCF    2B.7
024F:  MOVF   2B,W
0250:  BSF    03.5
0251:  MOVWF  07
0252:  BCF    03.5
0253:  BCF    07.7
....................       delay_ms(1);    
0254:  MOVLW  01
0255:  MOVWF  38
0256:  CALL   1CC
0257:  RETURN
.................... }
.................... void lcd_setup()
.................... {
....................       lcd_command(0x38); delay_ms(5);
*
0201:  MOVLW  38
0202:  MOVWF  33
0203:  CALL   1E0
0204:  MOVLW  05
0205:  MOVWF  38
0206:  CALL   1CC
....................       lcd_command(0x0c);
0207:  MOVLW  0C
0208:  MOVWF  33
0209:  CALL   1E0
....................       lcd_command(0x01); delay_ms(2);
020A:  MOVLW  01
020B:  MOVWF  33
020C:  CALL   1E0
020D:  MOVLW  02
020E:  MOVWF  38
020F:  CALL   1CC
0210:  BCF    0A.3
0211:  BCF    0A.4
0212:  GOTO   37A (RETURN)
.................... }
.................... 
.................... unsigned int8 bdn0=0,bdn1=0,bdn2=0,giay0=0,giay1=0,giay2=0,KQ;
.................... #int_ad
.................... void ngat_adc()
.................... {
.................... kq=read_adc(adc_read_only)/2.046;
*
006A:  BTFSC  1F.1
006B:  GOTO   06A
006C:  MOVF   1E,W
006D:  MOVWF  79
006E:  BSF    03.5
006F:  MOVF   1E,W
0070:  MOVWF  78
0071:  MOVF   79,W
0072:  BCF    03.5
0073:  MOVWF  3A
0074:  MOVF   78,W
0075:  MOVWF  39
0076:  MOVF   3A,W
0077:  MOVWF  3C
0078:  MOVF   39,W
0079:  MOVWF  3B
*
0096:  MOVF   7A,W
0097:  MOVWF  3E
0098:  MOVF   79,W
0099:  MOVWF  3D
009A:  MOVF   78,W
009B:  MOVWF  3C
009C:  MOVF   77,W
009D:  MOVWF  3B
009E:  MOVLW  AA
009F:  MOVWF  42
00A0:  MOVLW  F1
00A1:  MOVWF  41
00A2:  MOVLW  02
00A3:  MOVWF  40
00A4:  MOVLW  80
00A5:  MOVWF  3F
*
016F:  MOVF   7A,W
0170:  MOVWF  3C
0171:  MOVF   79,W
0172:  MOVWF  3B
0173:  MOVF   78,W
0174:  MOVWF  3A
0175:  MOVF   77,W
0176:  MOVWF  39
*
0195:  MOVF   78,W
0196:  MOVWF  32
.................... }
0197:  BCF    0C.6
0198:  BCF    0A.3
0199:  BCF    0A.4
019A:  GOTO   03D
.................... #int_timer0 
.................... void ngatt0()
.................... {
....................  bdn0++;
019B:  INCF   2C,F
....................  set_timer0(3);
019C:  MOVLW  03
019D:  MOVWF  01
.................... }
019E:  BCF    0B.2
019F:  BCF    0A.3
01A0:  BCF    0A.4
01A1:  GOTO   03D
.................... #int_timer1 
.................... void ngatt1()
.................... {
....................  bdn1++;
01A2:  INCF   2D,F
....................  set_timer1(3036);
01A3:  CLRF   0E
01A4:  MOVLW  0B
01A5:  MOVWF  0F
01A6:  MOVLW  DC
01A7:  MOVWF  0E
01A8:  NOP
.................... }
01A9:  BCF    0C.0
01AA:  BCF    0A.3
01AB:  BCF    0A.4
01AC:  GOTO   03D
.................... #int_timer2 
.................... void ngatt2()
.................... {
....................  bdn2++;
01AD:  INCF   2E,F
01AE:  BCF    0C.1
01AF:  BCF    0A.3
01B0:  BCF    0A.4
01B1:  GOTO   03D
.................... }
.................... 
.................... void TIME()
.................... {
....................           if(bdn0>=77)
*
0213:  MOVF   2C,W
0214:  SUBLW  4C
0215:  BTFSC  03.0
0216:  GOTO   21E
....................           {
....................                 bdn0=bdn0-77;
0217:  MOVLW  4D
0218:  SUBWF  2C,F
....................                 giay0++;
0219:  INCF   2F,F
....................                 if (giay0==60) giay0=0;
021A:  MOVF   2F,W
021B:  SUBLW  3C
021C:  BTFSC  03.2
021D:  CLRF   2F
....................           }
....................           if(bdn1>=10)
021E:  MOVF   2D,W
021F:  SUBLW  09
0220:  BTFSC  03.0
0221:  GOTO   229
....................           {
....................                 bdn1=bdn1-10;
0222:  MOVLW  0A
0223:  SUBWF  2D,F
....................                 giay1++;
0224:  INCF   30,F
....................                 if (giay1==60) giay1=0;
0225:  MOVF   30,W
0226:  SUBLW  3C
0227:  BTFSC  03.2
0228:  CLRF   30
....................           }
....................           if(bdn2>=77)
0229:  MOVF   2E,W
022A:  SUBLW  4C
022B:  BTFSC  03.0
022C:  GOTO   234
....................           {
....................                 bdn2=bdn2-77;
022D:  MOVLW  4D
022E:  SUBWF  2E,F
....................                 giay2++;
022F:  INCF   31,F
....................                 if (giay2==60) giay2=0;
0230:  MOVF   31,W
0231:  SUBLW  3C
0232:  BTFSC  03.2
0233:  CLRF   31
....................           }
0234:  BCF    0A.3
0235:  BCF    0A.4
0236:  GOTO   3B9 (RETURN)
.................... }
.................... void XUAT_LCD()
.................... {
....................     lcd_command(0x80);
*
02F9:  MOVLW  80
02FA:  MOVWF  33
02FB:  CALL   1E0
....................   printf(lcd_data,"Timer0: %u ",giay0);
02FC:  MOVLW  B2
02FD:  BSF    03.6
02FE:  MOVWF  0D
02FF:  MOVLW  01
0300:  MOVWF  0F
0301:  BCF    03.0
0302:  MOVLW  08
0303:  BCF    03.6
0304:  MOVWF  33
0305:  CALL   258
0306:  MOVF   2F,W
0307:  MOVWF  33
0308:  MOVLW  1B
0309:  MOVWF  34
030A:  CALL   2C4
030B:  MOVLW  20
030C:  MOVWF  37
030D:  CALL   237
....................     lcd_command(0xc0);
030E:  MOVLW  C0
030F:  MOVWF  33
0310:  CALL   1E0
....................   printf(lcd_data,"Timer1: %u ",giay1);
0311:  MOVLW  B8
0312:  BSF    03.6
0313:  MOVWF  0D
0314:  MOVLW  01
0315:  MOVWF  0F
0316:  BCF    03.0
0317:  MOVLW  08
0318:  BCF    03.6
0319:  MOVWF  33
031A:  CALL   258
031B:  MOVF   30,W
031C:  MOVWF  33
031D:  MOVLW  1B
031E:  MOVWF  34
031F:  CALL   2C4
0320:  MOVLW  20
0321:  MOVWF  37
0322:  CALL   237
....................     lcd_command(0x94);
0323:  MOVLW  94
0324:  MOVWF  33
0325:  CALL   1E0
....................   printf(lcd_data,"Timer2: %u ",giay2);
0326:  MOVLW  BE
0327:  BSF    03.6
0328:  MOVWF  0D
0329:  MOVLW  01
032A:  MOVWF  0F
032B:  BCF    03.0
032C:  MOVLW  08
032D:  BCF    03.6
032E:  MOVWF  33
032F:  CALL   258
0330:  MOVF   31,W
0331:  MOVWF  33
0332:  MOVLW  1B
0333:  MOVWF  34
0334:  CALL   2C4
0335:  MOVLW  20
0336:  MOVWF  37
0337:  CALL   237
....................       lcd_command(0xd4);
0338:  MOVLW  D4
0339:  MOVWF  33
033A:  CALL   1E0
....................   printf(lcd_data,"NHIET DO: %u  ",kq);
033B:  MOVLW  C4
033C:  BSF    03.6
033D:  MOVWF  0D
033E:  MOVLW  01
033F:  MOVWF  0F
0340:  BCF    03.0
0341:  MOVLW  0A
0342:  BCF    03.6
0343:  MOVWF  33
0344:  CALL   258
0345:  MOVF   32,W
0346:  MOVWF  33
0347:  MOVLW  1B
0348:  MOVWF  34
0349:  CALL   2C4
034A:  MOVLW  20
034B:  MOVWF  37
034C:  CALL   237
034D:  MOVLW  20
034E:  MOVWF  37
034F:  CALL   237
0350:  BCF    0A.3
0351:  BCF    0A.4
0352:  GOTO   3BB (RETURN)
.................... }
.................... void main()
0353:  MOVF   03,W
0354:  ANDLW  1F
0355:  MOVWF  03
0356:  MOVLW  FF
0357:  MOVWF  2B
0358:  CLRF   2C
0359:  CLRF   2D
035A:  CLRF   2E
035B:  CLRF   2F
035C:  CLRF   30
035D:  CLRF   31
035E:  BSF    03.5
035F:  BSF    03.6
0360:  MOVF   09,W
0361:  ANDLW  C0
0362:  MOVWF  09
0363:  BCF    03.6
0364:  BCF    1F.4
0365:  BCF    1F.5
0366:  MOVLW  00
0367:  BSF    03.6
0368:  MOVWF  08
0369:  BCF    03.5
036A:  CLRF   07
036B:  CLRF   08
036C:  CLRF   09
036D:  BCF    03.7
.................... {
....................    set_tris_a(0xff);
036E:  MOVLW  FF
036F:  BSF    03.5
0370:  BCF    03.6
0371:  MOVWF  05
....................    set_tris_c(0);
0372:  MOVLW  00
0373:  MOVWF  07
0374:  BCF    03.5
0375:  MOVWF  2B
....................    set_tris_d(0);
0376:  BSF    03.5
0377:  MOVWF  08
....................    lcd_setup();
0378:  BCF    03.5
0379:  GOTO   201
....................        setup_timer_0(T0_internal|T0_DIV_256); 
037A:  BSF    03.5
037B:  MOVF   01,W
037C:  ANDLW  C0
037D:  IORLW  07
037E:  MOVWF  01
....................        set_timer0(3); 
037F:  MOVLW  03
0380:  BCF    03.5
0381:  MOVWF  01
....................        enable_interrupts(int_timer0); 
0382:  BSF    0B.5
....................        setup_timer_1(T1_internal|T1_DIV_BY_8);
0383:  MOVLW  35
0384:  MOVWF  10
....................        set_timer1(3036);
0385:  CLRF   0E
0386:  MOVLW  0B
0387:  MOVWF  0F
0388:  MOVLW  DC
0389:  MOVWF  0E
038A:  NOP
....................        enable_interrupts(int_timer1); 
038B:  BSF    03.5
038C:  BSF    0C.0
....................        setup_timer_2(T2_DIV_BY_16,254,16); 
038D:  MOVLW  78
038E:  MOVWF  78
038F:  IORLW  06
0390:  BCF    03.5
0391:  MOVWF  12
0392:  MOVLW  FE
0393:  BSF    03.5
0394:  MOVWF  12
....................        set_timer2(254); 
0395:  BCF    03.5
0396:  MOVWF  11
....................        enable_interrupts(int_timer2); 
0397:  BSF    03.5
0398:  BSF    0C.1
....................        setup_adc(ADC_CLOCK_DIV_32);
0399:  BCF    03.5
039A:  BCF    1F.6
039B:  BSF    1F.7
039C:  BSF    03.5
039D:  BSF    1F.7
039E:  BCF    03.5
039F:  BSF    1F.0
....................        setup_adc_ports(sAN0|VSS_VDD);
03A0:  BSF    03.5
03A1:  BSF    03.6
03A2:  MOVF   09,W
03A3:  ANDLW  C0
03A4:  MOVWF  09
03A5:  BCF    03.6
03A6:  BCF    1F.4
03A7:  BCF    1F.5
03A8:  MOVLW  01
03A9:  BSF    03.6
03AA:  MOVWF  08
....................        set_adc_channel(0);
03AB:  MOVLW  00
03AC:  MOVWF  78
03AD:  BCF    03.5
03AE:  BCF    03.6
03AF:  MOVF   1F,W
03B0:  ANDLW  C3
03B1:  IORWF  78,W
03B2:  MOVWF  1F
....................        enable_interrupts(int_ad); 
03B3:  BSF    03.5
03B4:  BSF    0C.6
....................        enable_interrupts(global); 
03B5:  MOVLW  C0
03B6:  BCF    03.5
03B7:  IORWF  0B,F
....................  while(true)
....................  {
....................   TIME();
03B8:  GOTO   213
....................   read_adc(adc_start_only);       
03B9:  BSF    1F.1
....................   XUAT_LCD();
03BA:  GOTO   2F9
03BB:  GOTO   3B8
.................... 
....................  }
.................... }
03BC:  SLEEP

Configuration Fuses:
   Word  1: 2FE2   HS NOWDT PUT MCLR NOPROTECT NOCPD BROWNOUT IESO FCMEN NOLVP NODEBUG
   Word  2: 3FFF   BORV40 NOWRT
