CCS PCM C Compiler, Version 5.101, 43599               06-May-23 15:41

               Filename:   D:\processor\bai12\GIAOTIEPVOIMAYTINH.lst

               ROM used:   1053 words (13%)
                           Largest free fragment is 2048
               RAM used:   24 (7%) at main() level
                           38 (10%) worst case
               Stack used: 2 locations (1 in main + 1 for interrupts)
               Stack size: 8

*
0000:  MOVLW  02
0001:  MOVWF  0A
0002:  GOTO   264
0003:  NOP
0004:  MOVWF  7F
0005:  SWAPF  03,W
0006:  CLRF   03
0007:  MOVWF  21
0008:  MOVF   0A,W
0009:  MOVWF  20
000A:  CLRF   0A
000B:  MOVF   04,W
000C:  MOVWF  22
000D:  MOVF   77,W
000E:  MOVWF  23
000F:  MOVF   78,W
0010:  MOVWF  24
0011:  MOVF   79,W
0012:  MOVWF  25
0013:  MOVF   7A,W
0014:  MOVWF  26
0015:  BSF    03.6
0016:  MOVF   0D,W
0017:  BCF    03.6
0018:  MOVWF  27
0019:  BSF    03.6
001A:  MOVF   0F,W
001B:  BCF    03.6
001C:  MOVWF  28
001D:  BSF    03.6
001E:  MOVF   0C,W
001F:  BCF    03.6
0020:  MOVWF  29
0021:  BSF    03.6
0022:  MOVF   0E,W
0023:  BCF    03.6
0024:  MOVWF  2A
0025:  BCF    03.7
0026:  BCF    03.5
0027:  MOVLW  8C
0028:  MOVWF  04
0029:  BTFSS  00.5
002A:  GOTO   02D
002B:  BTFSC  0C.5
002C:  GOTO   04E
002D:  MOVF   22,W
002E:  MOVWF  04
002F:  MOVF   23,W
0030:  MOVWF  77
0031:  MOVF   24,W
0032:  MOVWF  78
0033:  MOVF   25,W
0034:  MOVWF  79
0035:  MOVF   26,W
0036:  MOVWF  7A
0037:  MOVF   27,W
0038:  BSF    03.6
0039:  MOVWF  0D
003A:  BCF    03.6
003B:  MOVF   28,W
003C:  BSF    03.6
003D:  MOVWF  0F
003E:  BCF    03.6
003F:  MOVF   29,W
0040:  BSF    03.6
0041:  MOVWF  0C
0042:  BCF    03.6
0043:  MOVF   2A,W
0044:  BSF    03.6
0045:  MOVWF  0E
0046:  BCF    03.6
0047:  MOVF   20,W
0048:  MOVWF  0A
0049:  SWAPF  21,W
004A:  MOVWF  03
004B:  SWAPF  7F,F
004C:  SWAPF  7F,W
004D:  RETFIE
004E:  BCF    0A.3
004F:  BCF    0A.4
0050:  GOTO   051
.................... #include<16f887.h>
.................... //////////// Standard Header file for the PIC16F887 device ////////////////
.................... ///////////////////////////////////////////////////////////////////////////
.................... ////        (C) Copyright 1996, 2020 Custom Computer Services          ////
.................... //// This source code may only be used by licensed users of the CCS C  ////
.................... //// compiler.  This source code may only be distributed to other      ////
.................... //// licensed users of the CCS C compiler.  No other use, reproduction ////
.................... //// or distribution is permitted without written permission.          ////
.................... //// Derivative programs created using this software in object code    ////
.................... //// form are not restricted in any way.                               ////
.................... ///////////////////////////////////////////////////////////////////////////
.................... #device PIC16F887
*
0059:  DATA 4E,34
005A:  DATA E9,32
005B:  DATA 74,10
005C:  DATA E4,37
005D:  DATA A0,25
005E:  DATA 65,37
005F:  DATA 68,10
0060:  DATA 35,1D
0061:  DATA A0,12
0062:  DATA EC,3A
0063:  DATA 20,10
0064:  DATA 20,00
0065:  DATA 4E,34
0066:  DATA E9,32
0067:  DATA 74,10
0068:  DATA E4,37
0069:  DATA A0,25
006A:  DATA 65,37
006B:  DATA 68,10
006C:  DATA 37,1D
006D:  DATA A0,12
006E:  DATA EC,3A
006F:  DATA 20,10
0070:  DATA 20,00
0071:  DATA 4E,34
0072:  DATA E9,32
0073:  DATA 74,10
0074:  DATA E4,37
0075:  DATA A0,25
0076:  DATA 65,37
0077:  DATA 68,10
0078:  DATA 35,1D
0079:  DATA A0,12
007A:  DATA EC,3A
007B:  DATA 20,10
007C:  DATA 20,00
007D:  DATA 4E,34
007E:  DATA E9,32
007F:  DATA 74,10
0080:  DATA E4,37
0081:  DATA A0,25
0082:  DATA 65,37
0083:  DATA 68,10
0084:  DATA 37,1D
0085:  DATA A0,12
0086:  DATA EC,3A
0087:  DATA 20,10
0088:  DATA 20,00
*
0098:  MOVLW  8E
0099:  MOVWF  77
009A:  MOVF   34,W
009B:  MOVWF  78
009C:  MOVF   33,W
009D:  MOVWF  79
009E:  CLRF   7A
009F:  MOVF   78,F
00A0:  BTFSS  03.2
00A1:  GOTO   0AC
00A2:  MOVF   79,W
00A3:  MOVWF  78
00A4:  CLRF   79
00A5:  MOVLW  08
00A6:  SUBWF  77,F
00A7:  MOVF   78,F
00A8:  BTFSS  03.2
00A9:  GOTO   0AC
00AA:  CLRF   77
00AB:  GOTO   0B4
00AC:  BCF    03.0
00AD:  BTFSC  78.7
00AE:  GOTO   0B3
00AF:  RLF    79,F
00B0:  RLF    78,F
00B1:  DECF   77,F
00B2:  GOTO   0AC
00B3:  BCF    78.7
00B4:  RETURN
00B5:  MOVF   33,W
00B6:  BTFSC  03.2
00B7:  GOTO   17A
00B8:  MOVWF  3F
00B9:  MOVF   37,W
00BA:  BTFSC  03.2
00BB:  GOTO   17A
00BC:  SUBWF  3F,F
00BD:  BTFSS  03.0
00BE:  GOTO   0C4
00BF:  MOVLW  7F
00C0:  ADDWF  3F,F
00C1:  BTFSC  03.0
00C2:  GOTO   17A
00C3:  GOTO   0CA
00C4:  MOVLW  81
00C5:  SUBWF  3F,F
00C6:  BTFSS  03.0
00C7:  GOTO   17A
00C8:  BTFSC  03.2
00C9:  GOTO   17A
00CA:  MOVF   3F,W
00CB:  MOVWF  77
00CC:  CLRF   78
00CD:  CLRF   79
00CE:  CLRF   7A
00CF:  CLRF   3E
00D0:  MOVF   34,W
00D1:  MOVWF  3D
00D2:  BSF    3D.7
00D3:  MOVF   35,W
00D4:  MOVWF  3C
00D5:  MOVF   36,W
00D6:  MOVWF  3B
00D7:  MOVLW  19
00D8:  MOVWF  3F
00D9:  MOVF   3A,W
00DA:  SUBWF  3B,F
00DB:  BTFSC  03.0
00DC:  GOTO   0ED
00DD:  MOVLW  01
00DE:  SUBWF  3C,F
00DF:  BTFSC  03.0
00E0:  GOTO   0ED
00E1:  SUBWF  3D,F
00E2:  BTFSC  03.0
00E3:  GOTO   0ED
00E4:  SUBWF  3E,F
00E5:  BTFSC  03.0
00E6:  GOTO   0ED
00E7:  INCF   3E,F
00E8:  INCF   3D,F
00E9:  INCF   3C,F
00EA:  MOVF   3A,W
00EB:  ADDWF  3B,F
00EC:  GOTO   11F
00ED:  MOVF   39,W
00EE:  SUBWF  3C,F
00EF:  BTFSC  03.0
00F0:  GOTO   108
00F1:  MOVLW  01
00F2:  SUBWF  3D,F
00F3:  BTFSC  03.0
00F4:  GOTO   108
00F5:  SUBWF  3E,F
00F6:  BTFSC  03.0
00F7:  GOTO   108
00F8:  INCF   3E,F
00F9:  INCF   3D,F
00FA:  MOVF   39,W
00FB:  ADDWF  3C,F
00FC:  MOVF   3A,W
00FD:  ADDWF  3B,F
00FE:  BTFSS  03.0
00FF:  GOTO   11F
0100:  INCF   3C,F
0101:  BTFSS  03.2
0102:  GOTO   11F
0103:  INCF   3D,F
0104:  BTFSS  03.2
0105:  GOTO   11F
0106:  INCF   3E,F
0107:  GOTO   11F
0108:  MOVF   38,W
0109:  IORLW  80
010A:  SUBWF  3D,F
010B:  BTFSC  03.0
010C:  GOTO   11E
010D:  MOVLW  01
010E:  SUBWF  3E,F
010F:  BTFSC  03.0
0110:  GOTO   11E
0111:  INCF   3E,F
0112:  MOVF   38,W
0113:  IORLW  80
0114:  ADDWF  3D,F
0115:  MOVF   39,W
0116:  ADDWF  3C,F
0117:  BTFSS  03.0
0118:  GOTO   0FC
0119:  INCF   3D,F
011A:  BTFSS  03.2
011B:  GOTO   0FC
011C:  INCF   3E,F
011D:  GOTO   0FC
011E:  BSF    7A.0
011F:  DECFSZ 3F,F
0120:  GOTO   122
0121:  GOTO   12D
0122:  BCF    03.0
0123:  RLF    3B,F
0124:  RLF    3C,F
0125:  RLF    3D,F
0126:  RLF    3E,F
0127:  BCF    03.0
0128:  RLF    7A,F
0129:  RLF    79,F
012A:  RLF    78,F
012B:  RLF    40,F
012C:  GOTO   0D9
012D:  BTFSS  40.0
012E:  GOTO   135
012F:  BCF    03.0
0130:  RRF    78,F
0131:  RRF    79,F
0132:  RRF    7A,F
0133:  RRF    40,F
0134:  GOTO   138
0135:  DECF   77,F
0136:  BTFSC  03.2
0137:  GOTO   17A
0138:  BTFSC  40.7
0139:  GOTO   161
013A:  BCF    03.0
013B:  RLF    3B,F
013C:  RLF    3C,F
013D:  RLF    3D,F
013E:  RLF    3E,F
013F:  MOVF   3A,W
0140:  SUBWF  3B,F
0141:  BTFSC  03.0
0142:  GOTO   14D
0143:  MOVLW  01
0144:  SUBWF  3C,F
0145:  BTFSC  03.0
0146:  GOTO   14D
0147:  SUBWF  3D,F
0148:  BTFSC  03.0
0149:  GOTO   14D
014A:  SUBWF  3E,F
014B:  BTFSS  03.0
014C:  GOTO   170
014D:  MOVF   39,W
014E:  SUBWF  3C,F
014F:  BTFSC  03.0
0150:  GOTO   158
0151:  MOVLW  01
0152:  SUBWF  3D,F
0153:  BTFSC  03.0
0154:  GOTO   158
0155:  SUBWF  3E,F
0156:  BTFSS  03.0
0157:  GOTO   170
0158:  MOVF   38,W
0159:  IORLW  80
015A:  SUBWF  3D,F
015B:  BTFSC  03.0
015C:  GOTO   161
015D:  MOVLW  01
015E:  SUBWF  3E,F
015F:  BTFSS  03.0
0160:  GOTO   170
0161:  INCF   7A,F
0162:  BTFSS  03.2
0163:  GOTO   170
0164:  INCF   79,F
0165:  BTFSS  03.2
0166:  GOTO   170
0167:  INCF   78,F
0168:  BTFSS  03.2
0169:  GOTO   170
016A:  INCF   77,F
016B:  BTFSC  03.2
016C:  GOTO   17A
016D:  RRF    78,F
016E:  RRF    79,F
016F:  RRF    7A,F
0170:  MOVF   34,W
0171:  MOVWF  3F
0172:  MOVF   38,W
0173:  XORWF  3F,F
0174:  BTFSS  3F.7
0175:  GOTO   178
0176:  BSF    78.7
0177:  GOTO   17E
0178:  BCF    78.7
0179:  GOTO   17E
017A:  CLRF   77
017B:  CLRF   78
017C:  CLRF   79
017D:  CLRF   7A
017E:  RETURN
017F:  MOVLW  8E
0180:  MOVWF  77
0181:  MOVF   31,W
0182:  SUBWF  77,F
0183:  MOVF   32,W
0184:  MOVWF  79
0185:  MOVF   33,W
0186:  MOVWF  78
0187:  BSF    79.7
0188:  MOVF   77,F
0189:  BTFSC  03.2
018A:  GOTO   196
018B:  BCF    03.0
018C:  MOVF   79,F
018D:  BTFSS  03.2
018E:  GOTO   192
018F:  MOVF   78,F
0190:  BTFSC  03.2
0191:  GOTO   196
0192:  RRF    79,F
0193:  RRF    78,F
0194:  DECFSZ 77,F
0195:  GOTO   18B
0196:  BTFSS  32.7
0197:  GOTO   19D
0198:  COMF   78,F
0199:  COMF   79,F
019A:  INCF   78,F
019B:  BTFSC  03.2
019C:  INCF   79,F
019D:  RETURN
019E:  MOVF   0B,W
019F:  MOVWF  32
01A0:  BCF    0B.7
01A1:  BSF    03.5
01A2:  BSF    03.6
01A3:  BSF    0C.7
01A4:  BSF    0C.0
01A5:  NOP
01A6:  NOP
01A7:  BCF    03.5
01A8:  BCF    03.6
01A9:  BTFSC  32.7
01AA:  BSF    0B.7
01AB:  BTFSC  03.0
01AC:  GOTO   1D6
01AD:  BSF    03.6
01AE:  MOVF   0C,W
01AF:  ANDLW  7F
01B0:  BCF    03.6
01B1:  MOVWF  32
01B2:  BSF    03.6
01B3:  MOVF   0D,W
01B4:  BCF    03.6
01B5:  MOVWF  33
01B6:  BSF    03.6
01B7:  MOVF   0F,W
01B8:  BCF    03.6
01B9:  MOVWF  34
01BA:  MOVF   32,W
01BB:  BTFSS  0C.4
01BC:  GOTO   1BB
01BD:  MOVWF  19
01BE:  MOVF   33,W
01BF:  BSF    03.6
01C0:  MOVWF  0D
01C1:  BCF    03.6
01C2:  MOVF   34,W
01C3:  BSF    03.6
01C4:  MOVWF  0F
01C5:  BCF    03.6
01C6:  MOVF   0B,W
01C7:  MOVWF  35
01C8:  BCF    0B.7
01C9:  BSF    03.5
01CA:  BSF    03.6
01CB:  BSF    0C.7
01CC:  BSF    0C.0
01CD:  NOP
01CE:  NOP
01CF:  BCF    03.5
01D0:  BCF    03.6
01D1:  BTFSC  35.7
01D2:  BSF    0B.7
01D3:  DECFSZ 31,F
01D4:  GOTO   1D6
01D5:  GOTO   1F6
01D6:  BSF    03.6
01D7:  RLF    0C,W
01D8:  RLF    0E,W
01D9:  ANDLW  7F
01DA:  BCF    03.6
01DB:  MOVWF  32
01DC:  BSF    03.6
01DD:  MOVF   0D,W
01DE:  BCF    03.6
01DF:  MOVWF  33
01E0:  BSF    03.6
01E1:  MOVF   0F,W
01E2:  BCF    03.6
01E3:  MOVWF  34
01E4:  MOVF   32,W
01E5:  BTFSS  0C.4
01E6:  GOTO   1E5
01E7:  MOVWF  19
01E8:  MOVF   33,W
01E9:  BSF    03.6
01EA:  MOVWF  0D
01EB:  BCF    03.6
01EC:  MOVF   34,W
01ED:  BSF    03.6
01EE:  MOVWF  0F
01EF:  INCF   0D,F
01F0:  BTFSC  03.2
01F1:  INCF   0F,F
01F2:  BCF    03.0
01F3:  BCF    03.6
01F4:  DECFSZ 31,F
01F5:  GOTO   19E
01F6:  RETURN
01F7:  CLRF   39
01F8:  MOVF   04,W
01F9:  MOVWF  38
01FA:  BCF    39.0
01FB:  BTFSC  03.7
01FC:  BSF    39.0
01FD:  SWAPF  32,W
01FE:  IORLW  F0
01FF:  MOVWF  34
0200:  ADDWF  34,F
0201:  ADDLW  E2
0202:  MOVWF  35
0203:  ADDLW  32
0204:  MOVWF  37
0205:  MOVF   32,W
0206:  ANDLW  0F
0207:  ADDWF  35,F
0208:  ADDWF  35,F
0209:  ADDWF  37,F
020A:  ADDLW  E9
020B:  MOVWF  36
020C:  ADDWF  36,F
020D:  ADDWF  36,F
020E:  SWAPF  31,W
020F:  ANDLW  0F
0210:  ADDWF  36,F
0211:  ADDWF  37,F
0212:  RLF    36,F
0213:  RLF    37,F
0214:  COMF   37,F
0215:  RLF    37,F
0216:  MOVF   31,W
0217:  ANDLW  0F
0218:  ADDWF  37,F
0219:  RLF    34,F
021A:  MOVLW  07
021B:  MOVWF  33
021C:  MOVLW  0A
021D:  ADDWF  37,F
021E:  DECF   36,F
021F:  BTFSS  03.0
0220:  GOTO   21D
0221:  ADDWF  36,F
0222:  DECF   35,F
0223:  BTFSS  03.0
0224:  GOTO   221
0225:  ADDWF  35,F
0226:  DECF   34,F
0227:  BTFSS  03.0
0228:  GOTO   225
0229:  ADDWF  34,F
022A:  DECF   33,F
022B:  BTFSS  03.0
022C:  GOTO   229
022D:  MOVLW  33
022E:  MOVWF  04
022F:  BCF    03.7
0230:  MOVLW  07
0231:  ANDWF  38,W
0232:  BCF    38.6
0233:  ADDWF  04,F
0234:  MOVLW  37
0235:  SUBWF  04,W
0236:  BTFSC  03.2
0237:  BSF    38.6
0238:  MOVF   00,W
0239:  MOVWF  77
023A:  BTFSS  03.2
023B:  GOTO   244
023C:  BTFSC  38.6
023D:  GOTO   244
023E:  BTFSC  38.4
023F:  GOTO   24C
0240:  BTFSC  38.3
0241:  GOTO   244
0242:  MOVLW  20
0243:  GOTO   247
0244:  BSF    38.3
0245:  BCF    38.4
0246:  MOVLW  30
0247:  ADDWF  77,F
0248:  MOVF   77,W
0249:  BTFSS  0C.4
024A:  GOTO   249
024B:  MOVWF  19
024C:  INCF   04,F
024D:  BTFSS  38.6
024E:  GOTO   234
024F:  RETURN
.................... 
.................... #list
.................... 
.................... #device adc=10
.................... #fuses hs
.................... #use delay(clock=20M)
*
0089:  MOVLW  03
008A:  SUBWF  31,F
008B:  BTFSS  03.0
008C:  GOTO   097
008D:  MOVLW  31
008E:  MOVWF  04
008F:  BCF    03.7
0090:  MOVF   00,W
0091:  BTFSC  03.2
0092:  GOTO   097
0093:  GOTO   095
0094:  GOTO   095
0095:  DECFSZ 00,F
0096:  GOTO   094
0097:  RETURN
*
0250:  MOVLW  31
0251:  MOVWF  04
0252:  BCF    03.7
0253:  MOVF   00,W
0254:  BTFSC  03.2
0255:  GOTO   263
0256:  MOVLW  06
0257:  MOVWF  78
0258:  CLRF   77
0259:  DECFSZ 77,F
025A:  GOTO   259
025B:  DECFSZ 78,F
025C:  GOTO   258
025D:  MOVLW  7B
025E:  MOVWF  77
025F:  DECFSZ 77,F
0260:  GOTO   25F
0261:  DECFSZ 00,F
0262:  GOTO   256
0263:  RETURN
.................... #use rs232(baud=9600,xmit=pin_c6,rcv=pin_c7)
.................... unsigned int16 kq5,kq7;
.................... unsigned int8 nhan=0;
.................... #INT_RDA
.................... void ngatuart()
.................... {
....................    nhan=getc();
*
0051:  BTFSS  0C.5
0052:  GOTO   051
0053:  MOVF   1A,W
0054:  MOVWF  2F
0055:  BCF    0C.5
0056:  BCF    0A.3
0057:  BCF    0A.4
0058:  GOTO   02D
.................... }
.................... void main()
*
0264:  MOVF   03,W
0265:  ANDLW  1F
0266:  MOVWF  03
0267:  BSF    03.5
0268:  BSF    03.6
0269:  BSF    07.3
026A:  MOVLW  08
026B:  BCF    03.6
026C:  MOVWF  19
026D:  MOVLW  02
026E:  MOVWF  1A
026F:  MOVLW  A6
0270:  MOVWF  18
0271:  MOVLW  90
0272:  BCF    03.5
0273:  MOVWF  18
0274:  CLRF   2F
0275:  MOVLW  FF
0276:  MOVWF  30
0277:  BSF    03.5
0278:  BSF    03.6
0279:  MOVF   09,W
027A:  ANDLW  C0
027B:  MOVWF  09
027C:  BCF    03.6
027D:  BCF    1F.4
027E:  BCF    1F.5
027F:  MOVLW  00
0280:  BSF    03.6
0281:  MOVWF  08
0282:  BCF    03.5
0283:  CLRF   07
0284:  CLRF   08
0285:  CLRF   09
0286:  BCF    03.7
.................... {
.................... set_tris_a(0xff);
0287:  MOVLW  FF
0288:  BSF    03.5
0289:  BCF    03.6
028A:  MOVWF  05
.................... set_tris_c(0x80);
028B:  MOVLW  80
028C:  MOVWF  07
028D:  BCF    03.5
028E:  MOVWF  30
.................... set_tris_e(0xff);
028F:  BSF    03.5
0290:  BSF    09.0
0291:  BSF    09.1
0292:  BSF    09.2
0293:  BSF    09.3
.................... setup_adc(ADC_CLOCK_DIV_32);
0294:  BCF    03.5
0295:  BCF    1F.6
0296:  BSF    1F.7
0297:  BSF    03.5
0298:  BSF    1F.7
0299:  BCF    03.5
029A:  BSF    1F.0
.................... setup_adc_ports(san5|san7|vss_vdd);
029B:  BSF    03.5
029C:  BSF    03.6
029D:  MOVF   09,W
029E:  ANDLW  C0
029F:  MOVWF  09
02A0:  BCF    03.6
02A1:  BCF    1F.4
02A2:  BCF    1F.5
02A3:  MOVLW  A0
02A4:  BSF    03.6
02A5:  MOVWF  08
.................... enable_interrupts(INT_RDA);
02A6:  BCF    03.6
02A7:  BSF    0C.5
.................... enable_interrupts(GLOBAL);
02A8:  MOVLW  C0
02A9:  BCF    03.5
02AA:  IORWF  0B,F
.................... 
.................... 
....................    while(true)
....................    {
....................       if(nhan=='5')
02AB:  MOVF   2F,W
02AC:  SUBLW  35
02AD:  BTFSS  03.2
02AE:  GOTO   308
....................       {
....................          set_adc_channel(5); delay_us(200);
02AF:  MOVLW  14
02B0:  MOVWF  78
02B1:  MOVF   1F,W
02B2:  ANDLW  C3
02B3:  IORWF  78,W
02B4:  MOVWF  1F
02B5:  MOVLW  C8
02B6:  MOVWF  31
02B7:  CALL   089
....................          kq5 = read_adc()/2.046;
02B8:  BSF    1F.1
02B9:  BTFSC  1F.1
02BA:  GOTO   2B9
02BB:  MOVF   1E,W
02BC:  MOVWF  79
02BD:  BSF    03.5
02BE:  MOVF   1E,W
02BF:  MOVWF  78
02C0:  MOVF   79,W
02C1:  BCF    03.5
02C2:  MOVWF  32
02C3:  MOVF   78,W
02C4:  MOVWF  31
02C5:  MOVF   32,W
02C6:  MOVWF  34
02C7:  MOVF   78,W
02C8:  MOVWF  33
02C9:  CALL   098
02CA:  MOVF   7A,W
02CB:  MOVWF  36
02CC:  MOVF   79,W
02CD:  MOVWF  35
02CE:  MOVF   78,W
02CF:  MOVWF  34
02D0:  MOVF   77,W
02D1:  MOVWF  33
02D2:  MOVLW  AA
02D3:  MOVWF  3A
02D4:  MOVLW  F1
02D5:  MOVWF  39
02D6:  MOVLW  02
02D7:  MOVWF  38
02D8:  MOVLW  80
02D9:  MOVWF  37
02DA:  CALL   0B5
02DB:  MOVF   7A,W
02DC:  MOVWF  34
02DD:  MOVF   79,W
02DE:  MOVWF  33
02DF:  MOVF   78,W
02E0:  MOVWF  32
02E1:  MOVF   77,W
02E2:  MOVWF  31
02E3:  CALL   17F
02E4:  MOVF   79,W
02E5:  MOVWF  2C
02E6:  MOVF   78,W
02E7:  MOVWF  2B
....................          printf("Nhiet do Kenh 5: %lu   ",kq5);
02E8:  MOVLW  59
02E9:  BSF    03.6
02EA:  MOVWF  0D
02EB:  MOVLW  00
02EC:  MOVWF  0F
02ED:  BCF    03.0
02EE:  MOVLW  11
02EF:  BCF    03.6
02F0:  MOVWF  31
02F1:  CALL   19E
02F2:  MOVLW  10
02F3:  MOVWF  04
02F4:  MOVF   2C,W
02F5:  MOVWF  32
02F6:  MOVF   2B,W
02F7:  MOVWF  31
02F8:  CALL   1F7
02F9:  MOVLW  20
02FA:  BTFSS  0C.4
02FB:  GOTO   2FA
02FC:  MOVWF  19
02FD:  MOVLW  20
02FE:  BTFSS  0C.4
02FF:  GOTO   2FE
0300:  MOVWF  19
0301:  MOVLW  20
0302:  BTFSS  0C.4
0303:  GOTO   302
0304:  MOVWF  19
....................          delay_ms(100);
0305:  MOVLW  64
0306:  MOVWF  31
0307:  CALL   250
....................       }
....................        if(nhan=='7')
0308:  MOVF   2F,W
0309:  SUBLW  37
030A:  BTFSS  03.2
030B:  GOTO   365
....................       {
....................          set_adc_channel(7); delay_us(200);
030C:  MOVLW  1C
030D:  MOVWF  78
030E:  MOVF   1F,W
030F:  ANDLW  C3
0310:  IORWF  78,W
0311:  MOVWF  1F
0312:  MOVLW  C8
0313:  MOVWF  31
0314:  CALL   089
....................          kq7 = read_adc()/2.046;
0315:  BSF    1F.1
0316:  BTFSC  1F.1
0317:  GOTO   316
0318:  MOVF   1E,W
0319:  MOVWF  79
031A:  BSF    03.5
031B:  MOVF   1E,W
031C:  MOVWF  78
031D:  MOVF   79,W
031E:  BCF    03.5
031F:  MOVWF  32
0320:  MOVF   78,W
0321:  MOVWF  31
0322:  MOVF   32,W
0323:  MOVWF  34
0324:  MOVF   78,W
0325:  MOVWF  33
0326:  CALL   098
0327:  MOVF   7A,W
0328:  MOVWF  36
0329:  MOVF   79,W
032A:  MOVWF  35
032B:  MOVF   78,W
032C:  MOVWF  34
032D:  MOVF   77,W
032E:  MOVWF  33
032F:  MOVLW  AA
0330:  MOVWF  3A
0331:  MOVLW  F1
0332:  MOVWF  39
0333:  MOVLW  02
0334:  MOVWF  38
0335:  MOVLW  80
0336:  MOVWF  37
0337:  CALL   0B5
0338:  MOVF   7A,W
0339:  MOVWF  34
033A:  MOVF   79,W
033B:  MOVWF  33
033C:  MOVF   78,W
033D:  MOVWF  32
033E:  MOVF   77,W
033F:  MOVWF  31
0340:  CALL   17F
0341:  MOVF   79,W
0342:  MOVWF  2E
0343:  MOVF   78,W
0344:  MOVWF  2D
....................          printf("Nhiet do Kenh 7: %lu   ",kq7);
0345:  MOVLW  65
0346:  BSF    03.6
0347:  MOVWF  0D
0348:  MOVLW  00
0349:  MOVWF  0F
034A:  BCF    03.0
034B:  MOVLW  11
034C:  BCF    03.6
034D:  MOVWF  31
034E:  CALL   19E
034F:  MOVLW  10
0350:  MOVWF  04
0351:  MOVF   2E,W
0352:  MOVWF  32
0353:  MOVF   2D,W
0354:  MOVWF  31
0355:  CALL   1F7
0356:  MOVLW  20
0357:  BTFSS  0C.4
0358:  GOTO   357
0359:  MOVWF  19
035A:  MOVLW  20
035B:  BTFSS  0C.4
035C:  GOTO   35B
035D:  MOVWF  19
035E:  MOVLW  20
035F:  BTFSS  0C.4
0360:  GOTO   35F
0361:  MOVWF  19
....................          delay_ms(100);
0362:  MOVLW  64
0363:  MOVWF  31
0364:  CALL   250
....................       }
....................         if(nhan=='A')
0365:  MOVF   2F,W
0366:  SUBLW  41
0367:  BTFSS  03.2
0368:  GOTO   41B
....................       {
....................          set_adc_channel(5); delay_us(200);
0369:  MOVLW  14
036A:  MOVWF  78
036B:  MOVF   1F,W
036C:  ANDLW  C3
036D:  IORWF  78,W
036E:  MOVWF  1F
036F:  MOVLW  C8
0370:  MOVWF  31
0371:  CALL   089
....................          kq5 = read_adc()/2.046;
0372:  BSF    1F.1
0373:  BTFSC  1F.1
0374:  GOTO   373
0375:  MOVF   1E,W
0376:  MOVWF  79
0377:  BSF    03.5
0378:  MOVF   1E,W
0379:  MOVWF  78
037A:  MOVF   79,W
037B:  BCF    03.5
037C:  MOVWF  32
037D:  MOVF   78,W
037E:  MOVWF  31
037F:  MOVF   32,W
0380:  MOVWF  34
0381:  MOVF   78,W
0382:  MOVWF  33
0383:  CALL   098
0384:  MOVF   7A,W
0385:  MOVWF  36
0386:  MOVF   79,W
0387:  MOVWF  35
0388:  MOVF   78,W
0389:  MOVWF  34
038A:  MOVF   77,W
038B:  MOVWF  33
038C:  MOVLW  AA
038D:  MOVWF  3A
038E:  MOVLW  F1
038F:  MOVWF  39
0390:  MOVLW  02
0391:  MOVWF  38
0392:  MOVLW  80
0393:  MOVWF  37
0394:  CALL   0B5
0395:  MOVF   7A,W
0396:  MOVWF  34
0397:  MOVF   79,W
0398:  MOVWF  33
0399:  MOVF   78,W
039A:  MOVWF  32
039B:  MOVF   77,W
039C:  MOVWF  31
039D:  CALL   17F
039E:  MOVF   79,W
039F:  MOVWF  2C
03A0:  MOVF   78,W
03A1:  MOVWF  2B
....................          printf("Nhiet do Kenh 5: %lu   ",kq5);
03A2:  MOVLW  71
03A3:  BSF    03.6
03A4:  MOVWF  0D
03A5:  MOVLW  00
03A6:  MOVWF  0F
03A7:  BCF    03.0
03A8:  MOVLW  11
03A9:  BCF    03.6
03AA:  MOVWF  31
03AB:  CALL   19E
03AC:  MOVLW  10
03AD:  MOVWF  04
03AE:  MOVF   2C,W
03AF:  MOVWF  32
03B0:  MOVF   2B,W
03B1:  MOVWF  31
03B2:  CALL   1F7
03B3:  MOVLW  20
03B4:  BTFSS  0C.4
03B5:  GOTO   3B4
03B6:  MOVWF  19
03B7:  MOVLW  20
03B8:  BTFSS  0C.4
03B9:  GOTO   3B8
03BA:  MOVWF  19
03BB:  MOVLW  20
03BC:  BTFSS  0C.4
03BD:  GOTO   3BC
03BE:  MOVWF  19
....................          delay_ms(100);
03BF:  MOVLW  64
03C0:  MOVWF  31
03C1:  CALL   250
....................          set_adc_channel(7); delay_us(200);
03C2:  MOVLW  1C
03C3:  MOVWF  78
03C4:  MOVF   1F,W
03C5:  ANDLW  C3
03C6:  IORWF  78,W
03C7:  MOVWF  1F
03C8:  MOVLW  C8
03C9:  MOVWF  31
03CA:  CALL   089
....................          kq7 = read_adc()/2.046;
03CB:  BSF    1F.1
03CC:  BTFSC  1F.1
03CD:  GOTO   3CC
03CE:  MOVF   1E,W
03CF:  MOVWF  79
03D0:  BSF    03.5
03D1:  MOVF   1E,W
03D2:  MOVWF  78
03D3:  MOVF   79,W
03D4:  BCF    03.5
03D5:  MOVWF  32
03D6:  MOVF   78,W
03D7:  MOVWF  31
03D8:  MOVF   32,W
03D9:  MOVWF  34
03DA:  MOVF   78,W
03DB:  MOVWF  33
03DC:  CALL   098
03DD:  MOVF   7A,W
03DE:  MOVWF  36
03DF:  MOVF   79,W
03E0:  MOVWF  35
03E1:  MOVF   78,W
03E2:  MOVWF  34
03E3:  MOVF   77,W
03E4:  MOVWF  33
03E5:  MOVLW  AA
03E6:  MOVWF  3A
03E7:  MOVLW  F1
03E8:  MOVWF  39
03E9:  MOVLW  02
03EA:  MOVWF  38
03EB:  MOVLW  80
03EC:  MOVWF  37
03ED:  CALL   0B5
03EE:  MOVF   7A,W
03EF:  MOVWF  34
03F0:  MOVF   79,W
03F1:  MOVWF  33
03F2:  MOVF   78,W
03F3:  MOVWF  32
03F4:  MOVF   77,W
03F5:  MOVWF  31
03F6:  CALL   17F
03F7:  MOVF   79,W
03F8:  MOVWF  2E
03F9:  MOVF   78,W
03FA:  MOVWF  2D
....................          printf("Nhiet do Kenh 7: %lu   ",kq7);
03FB:  MOVLW  7D
03FC:  BSF    03.6
03FD:  MOVWF  0D
03FE:  MOVLW  00
03FF:  MOVWF  0F
0400:  BCF    03.0
0401:  MOVLW  11
0402:  BCF    03.6
0403:  MOVWF  31
0404:  CALL   19E
0405:  MOVLW  10
0406:  MOVWF  04
0407:  MOVF   2E,W
0408:  MOVWF  32
0409:  MOVF   2D,W
040A:  MOVWF  31
040B:  CALL   1F7
040C:  MOVLW  20
040D:  BTFSS  0C.4
040E:  GOTO   40D
040F:  MOVWF  19
0410:  MOVLW  20
0411:  BTFSS  0C.4
0412:  GOTO   411
0413:  MOVWF  19
0414:  MOVLW  20
0415:  BTFSS  0C.4
0416:  GOTO   415
0417:  MOVWF  19
....................          delay_ms(100);
0418:  MOVLW  64
0419:  MOVWF  31
041A:  CALL   250
....................       }
041B:  GOTO   2AB
.................... //!         if(nhan='D') break;
....................       
....................    
....................    }
.................... }
041C:  SLEEP

Configuration Fuses:
   Word  1: 2FE2   HS NOWDT PUT MCLR NOPROTECT NOCPD BROWNOUT IESO FCMEN NOLVP NODEBUG
   Word  2: 3FFF   BORV40 NOWRT
